; Function Attrs: mustprogress uwtable
define void @_ZNK8IntValue16fillToXMLElementER11QDomElement(ptr nocapture noundef nonnull readonly align 8 dereferenceable(12) %0, ptr noundef nonnull align 8 dereferenceable(8) %1) unnamed_addr #2 align 2 personality ptr @__gxx_personality_v0 {
  %3 = alloca %class.QString, align 8
  %4 = alloca %class.QString, align 8
  %5 = tail call noundef ptr @_ZN7QString16fromAscii_helperEPKci(ptr noundef nonnull @.str.4, i32 noundef 5)
  store ptr %5, ptr %3, align 8
  %6 = getelementptr inbounds i8, ptr %0, i64 8
  %7 = load i32, ptr %6, align 8
  invoke void @_ZN7QString6numberEii(ptr dead_on_unwind nonnull writable sret(%class.QString) align 8 %4, i32 noundef %7, i32 noundef 10)
          to label %8 unwind label %18

8:                                                ; preds = %2
  invoke void @_ZN11QDomElement12setAttributeERK7QStringS2_(ptr noundef nonnull align 8 dereferenceable(8) %1, ptr noundef nonnull align 8 dereferenceable(8) %3, ptr noundef nonnull align 8 dereferenceable(8) %4)
          to label %9 unwind label %20

9:                                                ; preds = %8
  %10 = load ptr, ptr %4, align 8
  %11 = load atomic i32, ptr %10 monotonic, align 4
  switch i32 %11, label %_ZN9QtPrivate8RefCount5derefEv.exit.i [
    i32 0, label %_ZN9QtPrivate8RefCount5derefEv.exit.thread2.i
    i32 -1, label %_ZN7QStringD2Ev.exit
  ]

_ZN9QtPrivate8RefCount5derefEv.exit.i:            ; preds = %9
  %12 = atomicrmw sub ptr %10, i32 1 seq_cst, align 4
  %.not.i = icmp eq i32 %12, 1
  br i1 %.not.i, label %_ZN9QtPrivate8RefCount5derefEv.exit._ZN9QtPrivate8RefCount5derefEv.exit.thread2_crit_edge.i, label %_ZN7QStringD2Ev.exit

_ZN9QtPrivate8RefCount5derefEv.exit._ZN9QtPrivate8RefCount5derefEv.exit.thread2_crit_edge.i: ; preds = %_ZN9QtPrivate8RefCount5derefEv.exit.i
  %.pre.i = load ptr, ptr %4, align 8
  br label %_ZN9QtPrivate8RefCount5derefEv.exit.thread2.i

_ZN9QtPrivate8RefCount5derefEv.exit.thread2.i:    ; preds = %_ZN9QtPrivate8RefCount5derefEv.exit._ZN9QtPrivate8RefCount5derefEv.exit.thread2_crit_edge.i, %9
  %13 = phi ptr [ %.pre.i, %_ZN9QtPrivate8RefCount5derefEv.exit._ZN9QtPrivate8RefCount5derefEv.exit.thread2_crit_edge.i ], [ %10, %9 ]
  call void @_ZN10QArrayData10deallocateEPS_mm(ptr noundef %13, i64 noundef 2, i64 noundef 8) #13
  br label %_ZN7QStringD2Ev.exit

_ZN7QStringD2Ev.exit:                             ; preds = %9, %_ZN9QtPrivate8RefCount5derefEv.exit.i, %_ZN9QtPrivate8RefCount5derefEv.exit.thread2.i
  %14 = load ptr, ptr %3, align 8
  %15 = load atomic i32, ptr %14 monotonic, align 4
  switch i32 %15, label %_ZN9QtPrivate8RefCount5derefEv.exit.i6 [
    i32 0, label %_ZN9QtPrivate8RefCount5derefEv.exit.thread2.i5
    i32 -1, label %_ZN7QStringD2Ev.exit10
  ]

_ZN9QtPrivate8RefCount5derefEv.exit.i6:           ; preds = %_ZN7QStringD2Ev.exit
  %16 = atomicrmw sub ptr %14, i32 1 seq_cst, align 4
  %.not.i7 = icmp eq i32 %16, 1
  br i1 %.not.i7, label %_ZN9QtPrivate8RefCount5derefEv.exit._ZN9QtPrivate8RefCount5derefEv.exit.thread2_crit_edge.i8, label %_ZN7QStringD2Ev.exit10

_ZN9QtPrivate8RefCount5derefEv.exit._ZN9QtPrivate8RefCount5derefEv.exit.thread2_crit_edge.i8: ; preds = %_ZN9QtPrivate8RefCount5derefEv.exit.i6
  %.pre.i9 = load ptr, ptr %3, align 8
  br label %_ZN9QtPrivate8RefCount5derefEv.exit.thread2.i5

_ZN9QtPrivate8RefCount5derefEv.exit.thread2.i5:   ; preds = %_ZN9QtPrivate8RefCount5derefEv.exit._ZN9QtPrivate8RefCount5derefEv.exit.thread2_crit_edge.i8, %_ZN7QStringD2Ev.exit
  %17 = phi ptr [ %.pre.i9, %_ZN9QtPrivate8RefCount5derefEv.exit._ZN9QtPrivate8RefCount5derefEv.exit.thread2_crit_edge.i8 ], [ %14, %_ZN7QStringD2Ev.exit ]
  call void @_ZN10QArrayData10deallocateEPS_mm(ptr noundef %17, i64 noundef 2, i64 noundef 8) #13
  br label %_ZN7QStringD2Ev.exit10

_ZN7QStringD2Ev.exit10:                           ; preds = %_ZN7QStringD2Ev.exit, %_ZN9QtPrivate8RefCount5derefEv.exit.i6, %_ZN9QtPrivate8RefCount5derefEv.exit.thread2.i5
  ret void

18:                                               ; preds = %2
  %19 = landingpad { ptr, i32 }
          cleanup
  br label %22

20:                                               ; preds = %8
  %21 = landingpad { ptr, i32 }
          cleanup
  call void @_ZN7QStringD2Ev(ptr noundef nonnull align 8 dereferenceable(8) %4) #13
  br label %22

22:                                               ; preds = %20, %18
  %.pn = phi { ptr, i32 } [ %21, %20 ], [ %19, %18 ]
  call void @_ZN7QStringD2Ev(ptr noundef nonnull align 8 dereferenceable(8) %3) #13
  resume { ptr, i32 } %.pn
}